target datalayout = "e-m:e-p270:32:32-p271:32:32-p272:64:64-i64:64-i128:128-f80:128-n8:16:32:64-S128"
target triple = "x86_64-pc-linux-gnu"

%struct._zend_array = type { %struct._zend_refcounted_h, %union.anon.0, i32, %union.anon.1, i32, i32, i32, i32, i64, ptr }
%struct._zend_refcounted_h = type { i32, %union.anon }
%union.anon = type { i32 }
%union.anon.0 = type { i32 }
%union.anon.1 = type { ptr }
%struct._zval_struct = type { %union._zend_value, %union.anon.3, %union.anon.6 }
%union._zend_value = type { i64 }
%union.anon.3 = type { i32 }
%union.anon.6 = type { i32 }

@zend_string_init_interned = external global ptr, align 8
@php_password_algos = internal global %struct._zend_array zeroinitializer, align 8

; Function Attrs: nounwind uwtable
define dso_local i32 @php_password_algo_register(ptr noundef %0, ptr noundef %1) #0 {
  %3 = alloca ptr, align 8
  %4 = alloca ptr, align 8
  %5 = alloca ptr, align 8
  %6 = alloca ptr, align 8
  %7 = alloca %struct._zval_struct, align 8
  %8 = alloca ptr, align 8
  %9 = alloca ptr, align 8
  %10 = alloca ptr, align 8
  %11 = alloca ptr, align 8
  store ptr %0, ptr %9, align 8
  store ptr %1, ptr %10, align 8
  %12 = load ptr, ptr @zend_string_init_interned, align 8
  %13 = load ptr, ptr %9, align 8
  %14 = load ptr, ptr %9, align 8
  %15 = call i64 @strlen(ptr noundef %14) #8
  %16 = call ptr %12(ptr noundef %13, i64 noundef %15, i1 noundef zeroext true)
  store ptr %16, ptr %11, align 8
  %17 = load ptr, ptr %11, align 8
  %18 = load ptr, ptr %10, align 8
  store ptr @php_password_algos, ptr %4, align 8
  store ptr %17, ptr %5, align 8
  store ptr %18, ptr %6, align 8
  %19 = load ptr, ptr %6, align 8
  store ptr %19, ptr %7, align 8
  %20 = getelementptr inbounds %struct._zval_struct, ptr %7, i32 0, i32 1
  store i32 13, ptr %20, align 8
  %21 = load ptr, ptr %4, align 8
  %22 = load ptr, ptr %5, align 8
  %23 = call ptr @zend_hash_add(ptr noundef %21, ptr noundef %22, ptr noundef %7) #9
  store ptr %23, ptr %8, align 8
  %24 = load ptr, ptr %8, align 8
  %25 = icmp ne ptr %24, null
  br i1 %25, label %26, label %32

26:                                               ; preds = %2
  %27 = load ptr, ptr %8, align 8
  %28 = load ptr, ptr %27, align 8
  %29 = icmp ne ptr %28, null
  call void @llvm.assume(i1 %29)
  %30 = load ptr, ptr %8, align 8
  %31 = load ptr, ptr %30, align 8
  store ptr %31, ptr %3, align 8
  br label %33

32:                                               ; preds = %2
  store ptr null, ptr %3, align 8
  br label %33

33:                                               ; preds = %32, %26
  %34 = load ptr, ptr %3, align 8
  %35 = icmp ne ptr %34, null
  %36 = select i1 %35, i32 0, i32 -1
  ret i32 %36
}