; Function Attrs: nounwind uwtable
define dso_local i32 @php_password_algo_register(ptr noundef %0, ptr noundef %1) local_unnamed_addr #0 {
  %3 = alloca %struct._zval_struct, align 8
  %4 = load ptr, ptr @zend_string_init_interned, align 8
  %5 = tail call i64 @strlen(ptr noundef nonnull dereferenceable(1) %0) #11
  %6 = tail call ptr %4(ptr noundef %0, i64 noundef %5, i1 noundef zeroext true) #12
  store ptr %1, ptr %3, align 8
  %7 = getelementptr inbounds i8, ptr %3, i64 8
  store i32 13, ptr %7, align 8
  %8 = call ptr @zend_hash_add(ptr noundef nonnull @php_password_algos, ptr noundef %6, ptr noundef nonnull %3) #12
  %.not = icmp eq ptr %8, null
  %9 = sext i1 %.not to i32
  ret i32 %9
}